target datalayout = "e-m:e-p270:32:32-p271:32:32-p272:64:64-i64:64-i128:128-f80:128-n8:16:32:64-S128"
target triple = "x86_64-pc-linux-gnu"

%class.Sample = type { ptr, ptr, ptr, ptr, ptr, i8, float, float, float, float, float, float, float, float, float, float, float, float, float, i32, i8, i8, i8, ptr, [9 x ptr], ptr, %class.SampleDebugDraw }
%class.SampleDebugDraw = type { %class.DebugDrawGL }
%class.DebugDrawGL = type { %struct.duDebugDraw }
%struct.duDebugDraw = type { ptr }

; Function Attrs: mustprogress uwtable
define dso_local void @_ZN6Sample7setToolEP10SampleTool(ptr noundef nonnull align 8 dereferenceable(200) %0, ptr noundef %1) #2 align 2 {
  %3 = alloca ptr, align 8
  %4 = alloca ptr, align 8
  store ptr %0, ptr %3, align 8
  store ptr %1, ptr %4, align 8
  %5 = load ptr, ptr %3, align 8
  %6 = getelementptr inbounds %class.Sample, ptr %5, i32 0, i32 23
  %7 = load ptr, ptr %6, align 8
  %8 = icmp eq ptr %7, null
  br i1 %8, label %13, label %9

9:                                                ; preds = %2
  %10 = load ptr, ptr %7, align 8
  %11 = getelementptr inbounds ptr, ptr %10, i64 1
  %12 = load ptr, ptr %11, align 8
  call void %12(ptr noundef nonnull align 8 dereferenceable(8) %7) #10
  br label %13

13:                                               ; preds = %9, %2
  %14 = load ptr, ptr %4, align 8
  %15 = getelementptr inbounds %class.Sample, ptr %5, i32 0, i32 23
  store ptr %14, ptr %15, align 8
  %16 = load ptr, ptr %4, align 8
  %17 = icmp ne ptr %16, null
  br i1 %17, label %18, label %24

18:                                               ; preds = %13
  %19 = getelementptr inbounds %class.Sample, ptr %5, i32 0, i32 23
  %20 = load ptr, ptr %19, align 8
  %21 = load ptr, ptr %20, align 8
  %22 = getelementptr inbounds ptr, ptr %21, i64 3
  %23 = load ptr, ptr %22, align 8
  call void %23(ptr noundef nonnull align 8 dereferenceable(8) %20, ptr noundef %5)
  br label %24

24:                                               ; preds = %18, %13
  ret void
}