; Function Attrs: mustprogress uwtable
define dso_local void @_ZN6Sample7setToolEP10SampleTool(ptr noundef nonnull align 8 dereferenceable(200) %0, ptr noundef %1) local_unnamed_addr #3 align 2 {
  %3 = getelementptr inbounds i8, ptr %0, i64 104
  %4 = load ptr, ptr %3, align 8
  %5 = icmp eq ptr %4, null
  br i1 %5, label %10, label %6

6:                                                ; preds = %2
  %7 = load ptr, ptr %4, align 8
  %8 = getelementptr inbounds i8, ptr %7, i64 8
  %9 = load ptr, ptr %8, align 8
  tail call void %9(ptr noundef nonnull align 8 dereferenceable(8) %4) #15
  br label %10

10:                                               ; preds = %6, %2
  store ptr %1, ptr %3, align 8
  %.not = icmp eq ptr %1, null
  br i1 %.not, label %15, label %11

11:                                               ; preds = %10
  %12 = load ptr, ptr %1, align 8
  %13 = getelementptr inbounds i8, ptr %12, i64 24
  %14 = load ptr, ptr %13, align 8
  tail call void %14(ptr noundef nonnull align 8 dereferenceable(8) %1, ptr noundef nonnull %0)
  br label %15

15:                                               ; preds = %11, %10
  ret void
}